target datalayout = "e-m:e-p270:32:32-p271:32:32-p272:64:64-i64:64-i128:128-f80:128-n8:16:32:64-S128"
target triple = "x86_64-pc-linux-gnu"

@.str.284 = private unnamed_addr constant [12 x i8] c"MPEG DSM-CC\00", align 1
@.str.285 = private unnamed_addr constant [11 x i8] c"mpeg_dsmcc\00", align 1
@proto_dsmcc = internal global i32 0, align 4
@.str.286 = private unnamed_addr constant [11 x i8] c"mp2t-dsmcc\00", align 1
@dsmcc_ts_handle = internal global ptr null, align 8
@.str.287 = private unnamed_addr constant [15 x i8] c"mp2t-dsmcc-tcp\00", align 1
@dsmcc_tcp_handle = internal global ptr null, align 8
@.str.288 = private unnamed_addr constant [15 x i8] c"mp2t-dsmcc-udp\00", align 1
@dsmcc_udp_handle = internal global ptr null, align 8
@.str.289 = private unnamed_addr constant [11 x i8] c"verify_crc\00", align 1
@.str.290 = private unnamed_addr constant [35 x i8] c"Verify the section CRC or checksum\00", align 1
@.str.291 = private unnamed_addr constant [64 x i8] c"Whether the section dissector should verify the CRC or checksum\00", align 1
@dsmcc_sect_check_crc = internal global i8 0, align 1

; Function Attrs: null_pointer_is_valid sspstrong uwtable
define hidden void @proto_register_dsmcc() #0 {
  %1 = alloca ptr, align 8
  %2 = alloca ptr, align 8
  call void @llvm.lifetime.start.p0(i64 8, ptr %1) #4
  call void @llvm.lifetime.start.p0(i64 8, ptr %2) #4
  %3 = call i32 @proto_register_protocol(ptr noundef @.str.284, ptr noundef @.str.284, ptr noundef @.str.285)
  store i32 %3, ptr @proto_dsmcc, align 4
  %4 = load i32, ptr @proto_dsmcc, align 4
  call void @proto_register_field_array(i32 noundef %4, ptr noundef @proto_register_dsmcc.hf, i32 noundef 150)
  call void @proto_register_subtree_array(ptr noundef @proto_register_dsmcc.ett, i32 noundef 13)
  %5 = load i32, ptr @proto_dsmcc, align 4
  %6 = call ptr @expert_register_protocol(i32 noundef %5)
  store ptr %6, ptr %2, align 8
  %7 = load ptr, ptr %2, align 8
  call void @expert_register_field_array(ptr noundef %7, ptr noundef @proto_register_dsmcc.ei, i32 noundef 2)
  %8 = load i32, ptr @proto_dsmcc, align 4
  %9 = call ptr @register_dissector(ptr noundef @.str.286, ptr noundef @dissect_dsmcc_ts, i32 noundef %8)
  store ptr %9, ptr @dsmcc_ts_handle, align 8
  %10 = load i32, ptr @proto_dsmcc, align 4
  %11 = call ptr @register_dissector(ptr noundef @.str.287, ptr noundef @dissect_dsmcc_tcp, i32 noundef %10)
  store ptr %11, ptr @dsmcc_tcp_handle, align 8
  %12 = load i32, ptr @proto_dsmcc, align 4
  %13 = call ptr @register_dissector(ptr noundef @.str.288, ptr noundef @dissect_dsmcc_udp, i32 noundef %12)
  store ptr %13, ptr @dsmcc_udp_handle, align 8
  %14 = load i32, ptr @proto_dsmcc, align 4
  %15 = call ptr @prefs_register_protocol(i32 noundef %14, ptr noundef null)
  store ptr %15, ptr %1, align 8
  %16 = load ptr, ptr %1, align 8
  call void @prefs_register_bool_preference(ptr noundef %16, ptr noundef @.str.289, ptr noundef @.str.290, ptr noundef @.str.291, ptr noundef @dsmcc_sect_check_crc)
  call void @llvm.lifetime.end.p0(i64 8, ptr %2) #4
  call void @llvm.lifetime.end.p0(i64 8, ptr %1) #4
  ret void
}