; Function Attrs: null_pointer_is_valid sspstrong uwtable
define hidden void @proto_register_dsmcc() local_unnamed_addr #0 {
  %1 = tail call i32 @proto_register_protocol(ptr noundef nonnull @.str.284, ptr noundef nonnull @.str.284, ptr noundef nonnull @.str.285)
  store i32 %1, ptr @proto_dsmcc, align 4
  tail call void @proto_register_field_array(i32 noundef %1, ptr noundef nonnull @proto_register_dsmcc.hf, i32 noundef 150)
  tail call void @proto_register_subtree_array(ptr noundef nonnull @proto_register_dsmcc.ett, i32 noundef 13)
  %2 = load i32, ptr @proto_dsmcc, align 4
  %3 = tail call ptr @expert_register_protocol(i32 noundef %2)
  tail call void @expert_register_field_array(ptr noundef %3, ptr noundef nonnull @proto_register_dsmcc.ei, i32 noundef 2)
  %4 = load i32, ptr @proto_dsmcc, align 4
  %5 = tail call ptr @register_dissector(ptr noundef nonnull @.str.286, ptr noundef nonnull @dissect_dsmcc_ts, i32 noundef %4)
  store ptr %5, ptr @dsmcc_ts_handle, align 8
  %6 = load i32, ptr @proto_dsmcc, align 4
  %7 = tail call ptr @register_dissector(ptr noundef nonnull @.str.287, ptr noundef nonnull @dissect_dsmcc_tcp, i32 noundef %6)
  store ptr %7, ptr @dsmcc_tcp_handle, align 8
  %8 = load i32, ptr @proto_dsmcc, align 4
  %9 = tail call ptr @register_dissector(ptr noundef nonnull @.str.288, ptr noundef nonnull @dissect_dsmcc_udp, i32 noundef %8)
  store ptr %9, ptr @dsmcc_udp_handle, align 8
  %10 = load i32, ptr @proto_dsmcc, align 4
  %11 = tail call ptr @prefs_register_protocol(i32 noundef %10, ptr noundef null)
  tail call void @prefs_register_bool_preference(ptr noundef %11, ptr noundef nonnull @.str.289, ptr noundef nonnull @.str.290, ptr noundef nonnull @.str.291, ptr noundef nonnull @dsmcc_sect_check_crc)
  ret void
}